target datalayout = "e-m:e-p270:32:32-p271:32:32-p272:64:64-i64:64-i128:128-f80:128-n8:16:32:64-S128"
target triple = "x86_64-pc-linux-gnu"

%struct.SDL_Surface = type { i32, i32, i32, i32, i32, ptr, i32, ptr, i32, i32, ptr, i32, ptr, i32, ptr, i32, %struct.SDL_Rect, %struct.SDL_BlitMap }
%struct.SDL_Rect = type { i32, i32, i32, i32 }
%struct.SDL_BlitMap = type { i32, ptr, ptr, %struct.SDL_BlitInfo, i32, i32 }
%struct.SDL_BlitInfo = type { ptr, ptr, i32, i32, i32, i32, ptr, ptr, i32, i32, i32, i32, ptr, ptr, ptr, ptr, ptr, ptr, i32, i32, i8, i8, i8, i8 }
%struct.SDL_PixelFormatDetails = type { i32, i8, i8, [2 x i8], i32, i32, i32, i32, i8, i8, i8, i8, i8, i8, i8, i8 }

@.str = private unnamed_addr constant [26 x i8] c"Parameter '%s' is invalid\00", align 1
@.str.1 = private unnamed_addr constant [20 x i8] c"SDL_DrawLine(): dst\00", align 1
@.str.2 = private unnamed_addr constant [43 x i8] c"SDL_DrawLine(): Unsupported surface format\00", align 1

; Function Attrs: nounwind uwtable
define internal ptr @SDL_CalculateDrawLineFunc(ptr noundef %0) #0 {
  %2 = alloca ptr, align 8
  %3 = alloca ptr, align 8
  store ptr %0, ptr %3, align 8
  %4 = load ptr, ptr %3, align 8
  %5 = getelementptr inbounds nuw %struct.SDL_PixelFormatDetails, ptr %4, i32 0, i32 2
  %6 = load i8, ptr %5, align 1
  %7 = zext i8 %6 to i32
  switch i32 %7, label %18 [
    i32 1, label %8
    i32 2, label %16
    i32 4, label %17
  ]

8:                                                ; preds = %1
  %9 = load ptr, ptr %3, align 8
  %10 = getelementptr inbounds nuw %struct.SDL_PixelFormatDetails, ptr %9, i32 0, i32 1
  %11 = load i8, ptr %10, align 4
  %12 = zext i8 %11 to i32
  %13 = icmp slt i32 %12, 8
  br i1 %13, label %14, label %15

14:                                               ; preds = %8
  br label %18

15:                                               ; preds = %8
  store ptr @SDL_DrawLine1, ptr %2, align 8
  br label %19

16:                                               ; preds = %1
  store ptr @SDL_DrawLine2, ptr %2, align 8
  br label %19

17:                                               ; preds = %1
  store ptr @SDL_DrawLine4, ptr %2, align 8
  br label %19

18:                                               ; preds = %1, %14
  store ptr null, ptr %2, align 8
  br label %19

19:                                               ; preds = %18, %17, %16, %15
  %20 = load ptr, ptr %2, align 8
  ret ptr %20
}

; Function Attrs: nounwind uwtable
define hidden zeroext i1 @SDL_DrawLine(ptr noundef %0, i32 noundef %1, i32 noundef %2, i32 noundef %3, i32 noundef %4, i32 noundef %5) #0 {
  %7 = alloca i1, align 1
  %8 = alloca ptr, align 8
  %9 = alloca i32, align 4
  %10 = alloca i32, align 4
  %11 = alloca i32, align 4
  %12 = alloca i32, align 4
  %13 = alloca i32, align 4
  %14 = alloca ptr, align 8
  %15 = alloca i32, align 4
  store ptr %0, ptr %8, align 8
  store i32 %1, ptr %9, align 4
  store i32 %2, ptr %10, align 4
  store i32 %3, ptr %11, align 4
  store i32 %4, ptr %12, align 4
  store i32 %5, ptr %13, align 4
  call void @llvm.lifetime.start.p0(i64 8, ptr %14) #4
  %16 = load ptr, ptr %8, align 8
  %17 = call zeroext i1 @SDL_SurfaceValid(ptr noundef %16)
  br i1 %17, label %20, label %18

18:                                               ; preds = %6
  %19 = call zeroext i1 (ptr, ...) @SDL_SetError_REAL(ptr noundef @.str, ptr noundef @.str.1)
  store i1 %19, ptr %7, align 1
  store i32 1, ptr %15, align 4
  br label %42

20:                                               ; preds = %6
  %21 = load ptr, ptr %8, align 8
  %22 = getelementptr inbounds nuw %struct.SDL_Surface, ptr %21, i32 0, i32 10
  %23 = load ptr, ptr %22, align 8
  %24 = call ptr @SDL_CalculateDrawLineFunc(ptr noundef %23)
  store ptr %24, ptr %14, align 8
  %25 = load ptr, ptr %14, align 8
  %26 = icmp ne ptr %25, null
  br i1 %26, label %29, label %27

27:                                               ; preds = %20
  %28 = call zeroext i1 (ptr, ...) @SDL_SetError_REAL(ptr noundef @.str.2)
  store i1 %28, ptr %7, align 1
  store i32 1, ptr %15, align 4
  br label %42

29:                                               ; preds = %20
  %30 = load ptr, ptr %8, align 8
  %31 = getelementptr inbounds nuw %struct.SDL_Surface, ptr %30, i32 0, i32 16
  %32 = call zeroext i1 @SDL_GetRectAndLineIntersection_REAL(ptr noundef %31, ptr noundef %9, ptr noundef %10, ptr noundef %11, ptr noundef %12)
  br i1 %32, label %34, label %33

33:                                               ; preds = %29
  store i1 true, ptr %7, align 1
  store i32 1, ptr %15, align 4
  br label %42

34:                                               ; preds = %29
  %35 = load ptr, ptr %14, align 8
  %36 = load ptr, ptr %8, align 8
  %37 = load i32, ptr %9, align 4
  %38 = load i32, ptr %10, align 4
  %39 = load i32, ptr %11, align 4
  %40 = load i32, ptr %12, align 4
  %41 = load i32, ptr %13, align 4
  call void %35(ptr noundef %36, i32 noundef %37, i32 noundef %38, i32 noundef %39, i32 noundef %40, i32 noundef %41, i1 noundef zeroext true)
  store i1 true, ptr %7, align 1
  store i32 1, ptr %15, align 4
  br label %42

42:                                               ; preds = %34, %33, %27, %18
  call void @llvm.lifetime.end.p0(i64 8, ptr %14) #4
  %43 = load i1, ptr %7, align 1
  ret i1 %43
}