; Function Attrs: nounwind uwtable
define hidden zeroext i1 @SDL_DrawLine(ptr noundef %0, i32 noundef %1, i32 noundef %2, i32 noundef %3, i32 noundef %4, i32 noundef %5) local_unnamed_addr #0 {
  %7 = alloca i32, align 4
  %8 = alloca i32, align 4
  %9 = alloca i32, align 4
  %10 = alloca i32, align 4
  store i32 %1, ptr %7, align 4
  store i32 %2, ptr %8, align 4
  store i32 %3, ptr %9, align 4
  store i32 %4, ptr %10, align 4
  %11 = tail call zeroext i1 @SDL_SurfaceValid(ptr noundef %0) #6
  br i1 %11, label %14, label %12

12:                                               ; preds = %6
  %13 = tail call zeroext i1 (ptr, ...) @SDL_SetError_REAL(ptr noundef nonnull @.str, ptr noundef nonnull @.str.1) #6
  br label %33

14:                                               ; preds = %6
  %15 = getelementptr inbounds nuw i8, ptr %0, i64 56
  %16 = load ptr, ptr %15, align 8
  %17 = getelementptr inbounds nuw i8, ptr %16, i64 5
  %18 = load i8, ptr %17, align 1
  switch i8 %18, label %SDL_CalculateDrawLineFunc.exit [
    i8 1, label %19
    i8 2, label %25
    i8 4, label %23
  ]

19:                                               ; preds = %14
  %20 = getelementptr inbounds nuw i8, ptr %16, i64 4
  %21 = load i8, ptr %20, align 4
  %22 = icmp ult i8 %21, 8
  br i1 %22, label %SDL_CalculateDrawLineFunc.exit, label %25

23:                                               ; preds = %14
  br label %25

SDL_CalculateDrawLineFunc.exit:                   ; preds = %19, %14
  %24 = tail call zeroext i1 (ptr, ...) @SDL_SetError_REAL(ptr noundef nonnull @.str.2) #6
  br label %33

25:                                               ; preds = %23, %19, %14
  %.0.i.ph = phi ptr [ @SDL_DrawLine2, %14 ], [ @SDL_DrawLine1, %19 ], [ @SDL_DrawLine4, %23 ]
  %26 = getelementptr inbounds nuw i8, ptr %0, i64 100
  %27 = call zeroext i1 @SDL_GetRectAndLineIntersection_REAL(ptr noundef nonnull %26, ptr noundef nonnull %7, ptr noundef nonnull %8, ptr noundef nonnull %9, ptr noundef nonnull %10) #6
  br i1 %27, label %28, label %33

28:                                               ; preds = %25
  %29 = load i32, ptr %7, align 4
  %30 = load i32, ptr %8, align 4
  %31 = load i32, ptr %9, align 4
  %32 = load i32, ptr %10, align 4
  call void %.0.i.ph(ptr noundef nonnull %0, i32 noundef %29, i32 noundef %30, i32 noundef %31, i32 noundef %32, i32 noundef %5, i1 noundef zeroext true) #6, !callees !3
  br label %33

33:                                               ; preds = %25, %28, %SDL_CalculateDrawLineFunc.exit, %12
  %.0 = phi i1 [ true, %28 ], [ %24, %SDL_CalculateDrawLineFunc.exit ], [ %13, %12 ], [ true, %25 ]
  ret i1 %.0
}